; ModuleID = 'source-C-CXX/55/2888.cpp'
source_filename = "source-C-CXX/55/2888.cpp"
target datalayout = "e-m:e-p270:32:32-p271:32:32-p272:64:64-i64:64-f80:128-n8:16:32:64-S128"
target triple = "x86_64-pc-linux-gnu"

%"class.std::ios_base::Init" = type { i8 }
%"class.std::basic_istream" = type { i32 (...)**, i64, %"class.std::basic_ios" }
%"class.std::basic_ios" = type { %"class.std::ios_base", %"class.std::basic_ostream"*, i8, i8, %"class.std::basic_streambuf"*, %"class.std::ctype"*, %"class.std::num_put"*, %"class.std::num_get"* }
%"class.std::ios_base" = type { i32 (...)**, i64, i64, i32, i32, i32, %"struct.std::ios_base::_Callback_list"*, %"struct.std::ios_base::_Words", [8 x %"struct.std::ios_base::_Words"], i32, %"struct.std::ios_base::_Words"*, %"class.std::locale" }
%"struct.std::ios_base::_Callback_list" = type { %"struct.std::ios_base::_Callback_list"*, void (i32, %"class.std::ios_base"*, i32)*, i32, i32 }
%"struct.std::ios_base::_Words" = type { i8*, i64 }
%"class.std::locale" = type { %"class.std::locale::_Impl"* }
%"class.std::locale::_Impl" = type { i32, %"class.std::locale::facet"**, i64, %"class.std::locale::facet"**, i8** }
%"class.std::locale::facet" = type <{ i32 (...)**, i32, [4 x i8] }>
%"class.std::basic_ostream" = type { i32 (...)**, %"class.std::basic_ios" }
%"class.std::basic_streambuf" = type { i32 (...)**, i8*, i8*, i8*, i8*, i8*, i8*, %"class.std::locale" }
%"class.std::ctype" = type <{ %"class.std::locale::facet.base", [4 x i8], %struct.__locale_struct*, i8, [7 x i8], i32*, i32*, i16*, i8, [256 x i8], [256 x i8], i8, [6 x i8] }>
%"class.std::locale::facet.base" = type <{ i32 (...)**, i32 }>
%struct.__locale_struct = type { [13 x %struct.__locale_data*], i16*, i32*, i32*, [13 x i8*] }
%struct.__locale_data = type opaque
%"class.std::num_put" = type { %"class.std::locale::facet.base", [4 x i8] }
%"class.std::num_get" = type { %"class.std::locale::facet.base", [4 x i8] }

@_ZStL8__ioinit = internal global %"class.std::ios_base::Init" zeroinitializer, align 1
@__dso_handle = external hidden global i8
@_ZSt3cin = external global %"class.std::basic_istream", align 8
@_ZSt4cout = external global %"class.std::basic_ostream", align 8
@llvm.global_ctors = appending global [1 x { i32, void ()*, i8* }] [{ i32, void ()*, i8* } { i32 65535, void ()* @_GLOBAL__sub_I_2888.cpp, i8* null }]

declare void @_ZNSt8ios_base4InitC1Ev(%"class.std::ios_base::Init"* nonnull align 1 dereferenceable(1)) unnamed_addr #0

; Function Attrs: nounwind
declare void @_ZNSt8ios_base4InitD1Ev(%"class.std::ios_base::Init"* nonnull align 1 dereferenceable(1)) unnamed_addr #1

; Function Attrs: nofree nounwind
declare i32 @__cxa_atexit(void (i8*)*, i8*, i8*) local_unnamed_addr #2

; Function Attrs: mustprogress norecurse sspstrong uwtable
define dso_local i32 @main() local_unnamed_addr #3 {
  %1 = alloca i32, align 4
  %2 = alloca [5 x i32], align 16
  %3 = bitcast i32* %1 to i8*
  call void @llvm.lifetime.start.p0i8(i64 4, i8* nonnull %3) #7
  %4 = bitcast [5 x i32]* %2 to i8*
  call void @llvm.lifetime.start.p0i8(i64 20, i8* nonnull %4) #7
  %5 = call nonnull align 8 dereferenceable(16) %"class.std::basic_istream"* @_ZNSirsERi(%"class.std::basic_istream"* nonnull align 8 dereferenceable(16) @_ZSt3cin, i32* nonnull align 4 dereferenceable(4) %1)
  %6 = load i32, i32* %1, align 4
  %7 = icmp eq i32 %6, 0
  br i1 %7, label %26, label %18

8:                                                ; preds = %76, %70, %64, %58, %18
  %9 = phi i32 [ %21, %18 ], [ %61, %58 ], [ %67, %64 ], [ %73, %70 ], [ %79, %76 ]
  %10 = phi i1 [ true, %18 ], [ false, %58 ], [ false, %64 ], [ false, %70 ], [ false, %76 ]
  %11 = phi i1 [ false, %18 ], [ true, %58 ], [ false, %64 ], [ false, %70 ], [ false, %76 ]
  %12 = phi i1 [ false, %18 ], [ false, %58 ], [ true, %64 ], [ false, %70 ], [ false, %76 ]
  %13 = phi i1 [ false, %18 ], [ false, %58 ], [ false, %64 ], [ true, %70 ], [ false, %76 ]
  store i32 %9, i32* %1, align 4
  %14 = mul nsw i32 %9, 10
  %15 = getelementptr inbounds [5 x i32], [5 x i32]* %2, i64 0, i64 0
  %16 = load i32, i32* %15, align 16, !tbaa !5
  %17 = add nsw i32 %14, %16
  br i1 %10, label %24, label %80, !llvm.loop !9

18:                                               ; preds = %0
  %19 = srem i32 %6, 10
  %20 = getelementptr inbounds [5 x i32], [5 x i32]* %2, i64 0, i64 0
  store i32 %19, i32* %20, align 16, !tbaa !5
  %21 = sdiv i32 %6, 10
  %22 = add i32 %6, 9
  %23 = icmp ult i32 %22, 19
  br i1 %23, label %8, label %58, !llvm.loop !11

24:                                               ; preds = %95, %90, %85, %80, %8
  %25 = phi i32 [ %17, %8 ], [ %84, %80 ], [ %89, %85 ], [ %94, %90 ], [ %99, %95 ]
  store i32 %25, i32* %1, align 4, !tbaa !5
  br label %26

26:                                               ; preds = %0, %24
  %27 = phi i32 [ %25, %24 ], [ 0, %0 ]
  %28 = call nonnull align 8 dereferenceable(8) %"class.std::basic_ostream"* @_ZNSolsEi(%"class.std::basic_ostream"* nonnull align 8 dereferenceable(8) @_ZSt4cout, i32 %27)
  %29 = bitcast %"class.std::basic_ostream"* %28 to i8**
  %30 = load i8*, i8** %29, align 8, !tbaa !12
  %31 = getelementptr i8, i8* %30, i64 -24
  %32 = bitcast i8* %31 to i64*
  %33 = load i64, i64* %32, align 8
  %34 = bitcast %"class.std::basic_ostream"* %28 to i8*
  %35 = add nsw i64 %33, 240
  %36 = getelementptr inbounds i8, i8* %34, i64 %35
  %37 = bitcast i8* %36 to %"class.std::ctype"**
  %38 = load %"class.std::ctype"*, %"class.std::ctype"** %37, align 8, !tbaa !14
  %39 = icmp eq %"class.std::ctype"* %38, null
  br i1 %39, label %40, label %41

40:                                               ; preds = %26
  call void @_ZSt16__throw_bad_castv() #8
  unreachable

41:                                               ; preds = %26
  %42 = getelementptr inbounds %"class.std::ctype", %"class.std::ctype"* %38, i64 0, i32 8
  %43 = load i8, i8* %42, align 8, !tbaa !18
  %44 = icmp eq i8 %43, 0
  br i1 %44, label %48, label %45

45:                                               ; preds = %41
  %46 = getelementptr inbounds %"class.std::ctype", %"class.std::ctype"* %38, i64 0, i32 9, i64 10
  %47 = load i8, i8* %46, align 1, !tbaa !20
  br label %54

48:                                               ; preds = %41
  call void @_ZNKSt5ctypeIcE13_M_widen_initEv(%"class.std::ctype"* nonnull align 8 dereferenceable(570) %38)
  %49 = bitcast %"class.std::ctype"* %38 to i8 (%"class.std::ctype"*, i8)***
  %50 = load i8 (%"class.std::ctype"*, i8)**, i8 (%"class.std::ctype"*, i8)*** %49, align 8, !tbaa !12
  %51 = getelementptr inbounds i8 (%"class.std::ctype"*, i8)*, i8 (%"class.std::ctype"*, i8)** %50, i64 6
  %52 = load i8 (%"class.std::ctype"*, i8)*, i8 (%"class.std::ctype"*, i8)** %51, align 8
  %53 = call signext i8 %52(%"class.std::ctype"* nonnull align 8 dereferenceable(570) %38, i8 signext 10)
  br label %54

54:                                               ; preds = %45, %48
  %55 = phi i8 [ %47, %45 ], [ %53, %48 ]
  %56 = call nonnull align 8 dereferenceable(8) %"class.std::basic_ostream"* @_ZNSo3putEc(%"class.std::basic_ostream"* nonnull align 8 dereferenceable(8) %28, i8 signext %55)
  %57 = call nonnull align 8 dereferenceable(8) %"class.std::basic_ostream"* @_ZNSo5flushEv(%"class.std::basic_ostream"* nonnull align 8 dereferenceable(8) %56)
  call void @llvm.lifetime.end.p0i8(i64 20, i8* nonnull %4) #7
  call void @llvm.lifetime.end.p0i8(i64 4, i8* nonnull %3) #7
  ret i32 0

58:                                               ; preds = %18
  %59 = srem i32 %21, 10
  %60 = getelementptr inbounds [5 x i32], [5 x i32]* %2, i64 0, i64 1
  store i32 %59, i32* %60, align 4, !tbaa !5
  %61 = sdiv i32 %6, 100
  %62 = add nsw i32 %21, 9
  %63 = icmp ult i32 %62, 19
  br i1 %63, label %8, label %64, !llvm.loop !11

64:                                               ; preds = %58
  %65 = srem i32 %61, 10
  %66 = getelementptr inbounds [5 x i32], [5 x i32]* %2, i64 0, i64 2
  store i32 %65, i32* %66, align 8, !tbaa !5
  %67 = sdiv i32 %6, 1000
  %68 = add nsw i32 %61, 9
  %69 = icmp ult i32 %68, 19
  br i1 %69, label %8, label %70, !llvm.loop !11

70:                                               ; preds = %64
  %71 = srem i32 %67, 10
  %72 = getelementptr inbounds [5 x i32], [5 x i32]* %2, i64 0, i64 3
  store i32 %71, i32* %72, align 4, !tbaa !5
  %73 = sdiv i32 %6, 10000
  %74 = add nsw i32 %67, 9
  %75 = icmp ult i32 %74, 19
  br i1 %75, label %8, label %76, !llvm.loop !11

76:                                               ; preds = %70
  %77 = srem i32 %73, 10
  %78 = getelementptr inbounds [5 x i32], [5 x i32]* %2, i64 0, i64 4
  store i32 %77, i32* %78, align 16, !tbaa !5
  %79 = sdiv i32 %6, 100000
  br label %8

80:                                               ; preds = %8
  %81 = mul nsw i32 %17, 10
  %82 = getelementptr inbounds [5 x i32], [5 x i32]* %2, i64 0, i64 1
  %83 = load i32, i32* %82, align 4, !tbaa !5
  %84 = add nsw i32 %81, %83
  br i1 %11, label %24, label %85, !llvm.loop !9

85:                                               ; preds = %80
  %86 = mul nsw i32 %84, 10
  %87 = getelementptr inbounds [5 x i32], [5 x i32]* %2, i64 0, i64 2
  %88 = load i32, i32* %87, align 8, !tbaa !5
  %89 = add nsw i32 %86, %88
  br i1 %12, label %24, label %90, !llvm.loop !9

90:                                               ; preds = %85
  %91 = mul nsw i32 %89, 10
  %92 = getelementptr inbounds [5 x i32], [5 x i32]* %2, i64 0, i64 3
  %93 = load i32, i32* %92, align 4, !tbaa !5
  %94 = add nsw i32 %91, %93
  br i1 %13, label %24, label %95, !llvm.loop !9

95:                                               ; preds = %90
  %96 = mul nsw i32 %94, 10
  %97 = getelementptr inbounds [5 x i32], [5 x i32]* %2, i64 0, i64 4
  %98 = load i32, i32* %97, align 16, !tbaa !5
  %99 = add nsw i32 %96, %98
  br label %24
}

; Function Attrs: argmemonly mustprogress nofree nosync nounwind willreturn
declare void @llvm.lifetime.start.p0i8(i64 immarg, i8* nocapture) #4

declare nonnull align 8 dereferenceable(16) %"class.std::basic_istream"* @_ZNSirsERi(%"class.std::basic_istream"* nonnull align 8 dereferenceable(16), i32* nonnull align 4 dereferenceable(4)) local_unnamed_addr #0

declare nonnull align 8 dereferenceable(8) %"class.std::basic_ostream"* @_ZNSolsEi(%"class.std::basic_ostream"* nonnull align 8 dereferenceable(8), i32) local_unnamed_addr #0

; Function Attrs: argmemonly mustprogress nofree nosync nounwind willreturn
declare void @llvm.lifetime.end.p0i8(i64 immarg, i8* nocapture) #4

declare nonnull align 8 dereferenceable(8) %"class.std::basic_ostream"* @_ZNSo3putEc(%"class.std::basic_ostream"* nonnull align 8 dereferenceable(8), i8 signext) local_unnamed_addr #0

declare nonnull align 8 dereferenceable(8) %"class.std::basic_ostream"* @_ZNSo5flushEv(%"class.std::basic_ostream"* nonnull align 8 dereferenceable(8)) local_unnamed_addr #0

; Function Attrs: noreturn
declare void @_ZSt16__throw_bad_castv() local_unnamed_addr #5

declare void @_ZNKSt5ctypeIcE13_M_widen_initEv(%"class.std::ctype"* nonnull align 8 dereferenceable(570)) local_unnamed_addr #0

; Function Attrs: sspstrong uwtable
define internal void @_GLOBAL__sub_I_2888.cpp() #6 section ".text.startup" {
  tail call void @_ZNSt8ios_base4InitC1Ev(%"class.std::ios_base::Init"* nonnull align 1 dereferenceable(1) @_ZStL8__ioinit)
  %1 = tail call i32 @__cxa_atexit(void (i8*)* bitcast (void (%"class.std::ios_base::Init"*)* @_ZNSt8ios_base4InitD1Ev to void (i8*)*), i8* getelementptr inbounds (%"class.std::ios_base::Init", %"class.std::ios_base::Init"* @_ZStL8__ioinit, i64 0, i32 0), i8* nonnull @__dso_handle) #7
  ret void
}


!llvm.module.flags = !{!0, !1, !2, !3}
!llvm.ident = !{!4}

!0 = !{i32 1, !"wchar_size", i32 4}
!1 = !{i32 7, !"PIC Level", i32 2}
!2 = !{i32 7, !"PIE Level", i32 2}
!3 = !{i32 7, !"uwtable", i32 1}
!4 = !{!"clang version 13.0.0"}
!5 = !{!6, !6, i64 0}
!6 = !{!"int", !7, i64 0}
!7 = !{!"omnipotent char", !8, i64 0}
!8 = !{!"Simple C++ TBAA"}
!9 = distinct !{!9, !10}
!10 = !{!"llvm.loop.mustprogress"}
!11 = distinct !{!11, !10}
!12 = !{!13, !13, i64 0}
!13 = !{!"vtable pointer", !8, i64 0}
!14 = !{!15, !16, i64 240}
!15 = !{!"_ZTSSt9basic_iosIcSt11char_traitsIcEE", !16, i64 216, !7, i64 224, !17, i64 225, !16, i64 232, !16, i64 240, !16, i64 248, !16, i64 256}
!16 = !{!"any pointer", !7, i64 0}
!17 = !{!"bool", !7, i64 0}
!18 = !{!19, !7, i64 56}
!19 = !{!"_ZTSSt5ctypeIcE", !16, i64 16, !17, i64 24, !16, i64 32, !16, i64 40, !16, i64 48, !7, i64 56, !7, i64 57, !7, i64 313, !7, i64 569}
!20 = !{!7, !7, i64 0}
